target datalayout = "e-m:e-p270:32:32-p271:32:32-p272:64:64-i64:64-i128:128-f80:128-n8:16:32:64-S128"
target triple = "x86_64-pc-linux-gnu"

%struct.UText = type { i32, i32, i32, i32, i64, i32, i32, i64, i32, i32, ptr, ptr, ptr, ptr, ptr, ptr, ptr, ptr, i64, i32, i32, i64, i32, i32 }

; Function Attrs: inlinehint mustprogress nounwind uwtable
define internal noundef signext i8 @_ZL9U_SUCCESS10UErrorCode(i32 noundef %0) #2 {
  %2 = alloca i32, align 4
  store i32 %0, ptr %2, align 4, !tbaa !15
  %3 = load i32, ptr %2, align 4, !tbaa !15
  %4 = icmp sle i32 %3, 0
  %5 = zext i1 %4 to i8
  ret i8 %5
}

; Function Attrs: mustprogress uwtable
define noundef nonnull align 8 dereferenceable(336) ptr @_ZN6icu_7712RegexMatcher17appendReplacementERNS_13UnicodeStringERKS1_R10UErrorCode(ptr noundef nonnull align 8 dereferenceable(336) %0, ptr noundef nonnull align 8 dereferenceable(64) %1, ptr noundef nonnull align 8 dereferenceable(64) %2, ptr noundef nonnull align 4 dereferenceable(4) %3) unnamed_addr #1 align 2 {
  %5 = alloca ptr, align 8
  %6 = alloca ptr, align 8
  %7 = alloca ptr, align 8
  %8 = alloca ptr, align 8
  %9 = alloca %struct.UText, align 8
  %10 = alloca %struct.UText, align 8
  store ptr %0, ptr %5, align 8, !tbaa !23
  store ptr %1, ptr %6, align 8, !tbaa !100
  store ptr %2, ptr %7, align 8, !tbaa !100
  store ptr %3, ptr %8, align 8, !tbaa !22
  %11 = load ptr, ptr %5, align 8
  call void @llvm.lifetime.start.p0(i64 144, ptr %9) #11
  call void @llvm.memset.p0.i64(ptr align 8 %9, i8 0, i64 144, i1 false)
  %12 = getelementptr inbounds %struct.UText, ptr %9, i32 0, i32 0
  store i32 878368812, ptr %12, align 8
  %13 = getelementptr inbounds %struct.UText, ptr %9, i32 0, i32 3
  store i32 144, ptr %13, align 4
  %14 = load ptr, ptr %7, align 8, !tbaa !100
  %15 = load ptr, ptr %8, align 8, !tbaa !22
  %16 = call ptr @utext_openConstUnicodeString_77(ptr noundef %9, ptr noundef %14, ptr noundef %15)
  %17 = load ptr, ptr %8, align 8, !tbaa !22
  %18 = load i32, ptr %17, align 4, !tbaa !15
  %19 = call noundef signext i8 @_ZL9U_SUCCESS10UErrorCode(i32 noundef %18)
  %20 = icmp ne i8 %19, 0
  br i1 %20, label %21, label %37

21:                                               ; preds = %4
  call void @llvm.lifetime.start.p0(i64 144, ptr %10) #11
  call void @llvm.memset.p0.i64(ptr align 8 %10, i8 0, i64 144, i1 false)
  %22 = getelementptr inbounds %struct.UText, ptr %10, i32 0, i32 0
  store i32 878368812, ptr %22, align 8
  %23 = getelementptr inbounds %struct.UText, ptr %10, i32 0, i32 3
  store i32 144, ptr %23, align 4
  %24 = load ptr, ptr %6, align 8, !tbaa !100
  %25 = load ptr, ptr %8, align 8, !tbaa !22
  %26 = call ptr @utext_openUnicodeString_77(ptr noundef %10, ptr noundef %24, ptr noundef %25)
  %27 = load ptr, ptr %8, align 8, !tbaa !22
  %28 = load i32, ptr %27, align 4, !tbaa !15
  %29 = call noundef signext i8 @_ZL9U_SUCCESS10UErrorCode(i32 noundef %28)
  %30 = icmp ne i8 %29, 0
  br i1 %30, label %31, label %35

31:                                               ; preds = %21
  %32 = load ptr, ptr %8, align 8, !tbaa !22
  %33 = call noundef nonnull align 8 dereferenceable(336) ptr @_ZN6icu_7712RegexMatcher17appendReplacementEP5UTextS2_R10UErrorCode(ptr noundef nonnull align 8 dereferenceable(336) %11, ptr noundef %10, ptr noundef %9, ptr noundef nonnull align 4 dereferenceable(4) %32)
  %34 = call ptr @utext_close_77(ptr noundef %10)
  br label %35

35:                                               ; preds = %31, %21
  %36 = call ptr @utext_close_77(ptr noundef %9)
  call void @llvm.lifetime.end.p0(i64 144, ptr %10) #11
  br label %37

37:                                               ; preds = %35, %4
  call void @llvm.lifetime.end.p0(i64 144, ptr %9) #11
  ret ptr %11
}