; Function Attrs: mustprogress uwtable
define noundef nonnull align 8 dereferenceable(336) ptr @_ZN6icu_7712RegexMatcher17appendReplacementERNS_13UnicodeStringERKS1_R10UErrorCode(ptr noundef nonnull returned align 8 dereferenceable(336) %0, ptr noundef nonnull align 8 dereferenceable(64) %1, ptr noundef nonnull align 8 dereferenceable(64) %2, ptr noundef nonnull align 4 dereferenceable(4) %3) unnamed_addr #1 align 2 {
  %5 = alloca %struct.UText, align 8
  %6 = alloca %struct.UText, align 8
  call void @llvm.lifetime.start.p0(i64 144, ptr nonnull %5) #21
  call void @llvm.memset.p0.i64(ptr noundef nonnull align 8 dereferenceable(144) %5, i8 0, i64 144, i1 false)
  store i32 878368812, ptr %5, align 8
  %7 = getelementptr inbounds nuw i8, ptr %5, i64 12
  store i32 144, ptr %7, align 4
  %8 = call ptr @utext_openConstUnicodeString_77(ptr noundef nonnull %5, ptr noundef nonnull %2, ptr noundef nonnull %3)
  %9 = load i32, ptr %3, align 4, !tbaa !13
  %10 = icmp sgt i32 %9, 0
  br i1 %10, label %21, label %11

11:                                               ; preds = %4
  call void @llvm.lifetime.start.p0(i64 144, ptr nonnull %6) #21
  call void @llvm.memset.p0.i64(ptr noundef nonnull align 8 dereferenceable(144) %6, i8 0, i64 144, i1 false)
  store i32 878368812, ptr %6, align 8
  %12 = getelementptr inbounds nuw i8, ptr %6, i64 12
  store i32 144, ptr %12, align 4
  %13 = call ptr @utext_openUnicodeString_77(ptr noundef nonnull %6, ptr noundef nonnull %1, ptr noundef nonnull %3)
  %14 = load i32, ptr %3, align 4, !tbaa !13
  %15 = icmp sgt i32 %14, 0
  br i1 %15, label %19, label %16

16:                                               ; preds = %11
  %17 = call noundef nonnull align 8 dereferenceable(336) ptr @_ZN6icu_7712RegexMatcher17appendReplacementEP5UTextS2_R10UErrorCode(ptr noundef nonnull align 8 dereferenceable(336) %0, ptr noundef nonnull %6, ptr noundef nonnull %5, ptr noundef nonnull align 4 dereferenceable(4) %3)
  %18 = call ptr @utext_close_77(ptr noundef nonnull %6)
  br label %19

19:                                               ; preds = %16, %11
  %20 = call ptr @utext_close_77(ptr noundef nonnull %5)
  call void @llvm.lifetime.end.p0(i64 144, ptr nonnull %6) #21
  br label %21

21:                                               ; preds = %19, %4
  call void @llvm.lifetime.end.p0(i64 144, ptr nonnull %5) #21
  ret ptr %0
}